; Function Attrs: nounwind uwtable
define internal fastcc void @uint_set_merge_adjacent(ptr noundef captures(none) %0, ptr noundef nonnull captures(none) %1) unnamed_addr #1 {
  %3 = getelementptr i8, ptr %1, i64 8
  %.val = load ptr, ptr %3, align 8, !tbaa !22
  %4 = icmp eq ptr %.val, null
  br i1 %4, label %32, label %5

5:                                                ; preds = %2
  %6 = getelementptr inbounds nuw i8, ptr %1, i64 16
  %7 = load i64, ptr %6, align 8, !tbaa !20
  %8 = add i64 %7, -1
  %9 = getelementptr inbounds nuw i8, ptr %.val, i64 24
  %10 = load i64, ptr %9, align 8, !tbaa !21
  %.not = icmp eq i64 %8, %10
  br i1 %.not, label %11, label %32

11:                                               ; preds = %5
  %12 = getelementptr inbounds nuw i8, ptr %.val, i64 16
  %13 = load i64, ptr %12, align 8, !tbaa !20
  store i64 %13, ptr %6, align 8, !tbaa !20
  %14 = load ptr, ptr %0, align 8, !tbaa !3
  %15 = icmp eq ptr %14, %.val
  br i1 %15, label %16, label %18

16:                                               ; preds = %11
  %17 = load ptr, ptr %.val, align 8, !tbaa !10
  store ptr %17, ptr %0, align 8, !tbaa !3
  br label %18

18:                                               ; preds = %16, %11
  %19 = getelementptr inbounds nuw i8, ptr %0, i64 8
  %20 = load ptr, ptr %19, align 8, !tbaa !23
  %21 = icmp eq ptr %20, %.val
  %22 = getelementptr inbounds nuw i8, ptr %.val, i64 8
  %23 = load ptr, ptr %22, align 8, !tbaa !22
  br i1 %21, label %24, label %._crit_edge.i

24:                                               ; preds = %18
  store ptr %23, ptr %19, align 8, !tbaa !23
  br label %._crit_edge.i

._crit_edge.i:                                    ; preds = %24, %18
  %.not.i = icmp eq ptr %23, null
  %.pre19.i = load ptr, ptr %.val, align 8, !tbaa !10
  br i1 %.not.i, label %26, label %25

25:                                               ; preds = %._crit_edge.i
  store ptr %.pre19.i, ptr %23, align 8, !tbaa !10
  br label %26

26:                                               ; preds = %25, %._crit_edge.i
  %.not18.i = icmp eq ptr %.pre19.i, null
  br i1 %.not18.i, label %ossl_list_uint_set_remove.exit, label %27

27:                                               ; preds = %26
  %28 = getelementptr inbounds nuw i8, ptr %.pre19.i, i64 8
  store ptr %23, ptr %28, align 8, !tbaa !22
  br label %ossl_list_uint_set_remove.exit

ossl_list_uint_set_remove.exit:                   ; preds = %26, %27
  %29 = getelementptr inbounds nuw i8, ptr %0, i64 16
  %30 = load i64, ptr %29, align 8, !tbaa !19
  %31 = add i64 %30, -1
  store i64 %31, ptr %29, align 8, !tbaa !19
  tail call void @llvm.memset.p0.i64(ptr noundef nonnull align 8 dereferenceable(16) %.val, i8 0, i64 16, i1 false)
  tail call void @CRYPTO_free(ptr noundef nonnull %.val, ptr noundef nonnull @.str, i32 noundef 88) #6
  br label %32

32:                                               ; preds = %5, %2, %ossl_list_uint_set_remove.exit
  ret void
}